target datalayout = "e-m:e-p270:32:32-p271:32:32-p272:64:64-i64:64-i128:128-f80:128-n8:16:32:64-S128"
target triple = "x86_64-pc-linux-gnu"

%struct.H5G_loc_t = type { ptr, ptr }
%struct.H5VL_loc_params_t = type { i32, i32, %union.anon }
%union.anon = type { %struct.H5VL_loc_by_idx }
%struct.H5VL_loc_by_idx = type { ptr, i32, i32, i64, i64 }
%struct.H5O_loc_t = type { ptr, i64, i8 }

@.str = private unnamed_addr constant [112 x i8] c"generated/home/dtcxzyw/WorkSpace/Projects/compilers/llvm-opt-benchmark/bench/hdf5/hdf5/src/H5VLnative_dataset.c\00", align 1
@__func__.H5VL__native_dataset_create = private unnamed_addr constant [28 x i8] c"H5VL__native_dataset_create\00", align 1
@H5E_ARGS_g = external global i64, align 8
@H5E_BADTYPE_g = external global i64, align 8
@.str.1 = private unnamed_addr constant [26 x i8] c"not a file or file object\00", align 1
@.str.2 = private unnamed_addr constant [18 x i8] c"not a datatype ID\00", align 1
@.str.3 = private unnamed_addr constant [19 x i8] c"not a dataspace ID\00", align 1
@H5E_DATASET_g = external global i64, align 8
@H5E_CANTINIT_g = external global i64, align 8
@.str.4 = private unnamed_addr constant [25 x i8] c"unable to create dataset\00", align 1
@H5E_CANTGET_g = external global i64, align 8
@.str.5 = private unnamed_addr constant [41 x i8] c"unable to get object location of dataset\00", align 1
@H5E_CANTDEC_g = external global i64, align 8
@.str.6 = private unnamed_addr constant [53 x i8] c"unable to decrement refcount on newly created object\00", align 1

; Function Attrs: nounwind uwtable
define ptr @H5VL__native_dataset_create(ptr noundef %0, ptr noundef %1, ptr noundef %2, i64 noundef %3, i64 noundef %4, i64 noundef %5, i64 noundef %6, i64 noundef %7, i64 noundef %8, ptr noundef %9) #0 {
  %11 = alloca ptr, align 8
  %12 = alloca ptr, align 8
  %13 = alloca ptr, align 8
  %14 = alloca i64, align 8
  %15 = alloca i64, align 8
  %16 = alloca i64, align 8
  %17 = alloca i64, align 8
  %18 = alloca i64, align 8
  %19 = alloca i64, align 8
  %20 = alloca ptr, align 8
  %21 = alloca %struct.H5G_loc_t, align 8
  %22 = alloca ptr, align 8
  %23 = alloca ptr, align 8
  %24 = alloca ptr, align 8
  %25 = alloca i8, align 1
  %26 = alloca ptr, align 8
  store ptr %0, ptr %11, align 8, !tbaa !3
  store ptr %1, ptr %12, align 8, !tbaa !7
  store ptr %2, ptr %13, align 8, !tbaa !9
  store i64 %3, ptr %14, align 8, !tbaa !11
  store i64 %4, ptr %15, align 8, !tbaa !11
  store i64 %5, ptr %16, align 8, !tbaa !11
  store i64 %6, ptr %17, align 8, !tbaa !11
  store i64 %7, ptr %18, align 8, !tbaa !11
  store i64 %8, ptr %19, align 8, !tbaa !11
  store ptr %9, ptr %20, align 8, !tbaa !3
  call void @llvm.lifetime.start.p0(i64 16, ptr %21) #6
  call void @llvm.lifetime.start.p0(i64 8, ptr %22) #6
  store ptr null, ptr %22, align 8, !tbaa !13
  call void @llvm.lifetime.start.p0(i64 8, ptr %23) #6
  call void @llvm.lifetime.start.p0(i64 8, ptr %24) #6
  call void @llvm.lifetime.start.p0(i64 1, ptr %25) #6
  store i8 0, ptr %25, align 1, !tbaa !15
  %27 = load ptr, ptr %11, align 8, !tbaa !3
  %28 = load ptr, ptr %12, align 8, !tbaa !7
  %29 = getelementptr inbounds nuw %struct.H5VL_loc_params_t, ptr %28, i32 0, i32 0
  %30 = load i32, ptr %29, align 8, !tbaa !17
  %31 = call i32 @H5G_loc_real(ptr noundef %27, i32 noundef %30, ptr noundef %21)
  %32 = icmp slt i32 %31, 0
  br i1 %32, label %33, label %52

33:                                               ; preds = %10
  br label %34

34:                                               ; preds = %33
  br label %35

35:                                               ; preds = %34
  br label %36

36:                                               ; preds = %35
  %37 = load i64, ptr @H5E_ARGS_g, align 8, !tbaa !11
  %38 = load i64, ptr @H5E_BADTYPE_g, align 8, !tbaa !11
  %39 = call i32 (ptr, ptr, i32, i64, i64, ptr, ...) @H5E_printf_stack(ptr noundef @.str, ptr noundef @__func__.H5VL__native_dataset_create, i32 noundef 266, i64 noundef %37, i64 noundef %38, ptr noundef @.str.1)
  br label %40

40:                                               ; preds = %36
  br label %41

41:                                               ; preds = %40
  store i8 1, ptr %25, align 1, !tbaa !15
  %42 = load i8, ptr %25, align 1, !tbaa !15, !range !20, !noundef !21
  %43 = trunc i8 %42 to i1
  %44 = zext i1 %43 to i8
  store i8 %44, ptr %25, align 1, !tbaa !15
  br label %45

45:                                               ; preds = %41
  br label %46

46:                                               ; preds = %45
  br label %47

47:                                               ; preds = %46
  store ptr null, ptr %24, align 8, !tbaa !3
  br label %163

48:                                               ; No predecessors!
  br label %49

49:                                               ; preds = %48
  br label %50

50:                                               ; preds = %49
  br label %51

51:                                               ; preds = %50
  br label %52

52:                                               ; preds = %51, %10
  %53 = load i64, ptr %15, align 8, !tbaa !11
  %54 = call i32 @H5I_get_type(i64 noundef %53)
  %55 = icmp ne i32 3, %54
  br i1 %55, label %56, label %75

56:                                               ; preds = %52
  br label %57

57:                                               ; preds = %56
  br label %58

58:                                               ; preds = %57
  br label %59

59:                                               ; preds = %58
  %60 = load i64, ptr @H5E_ARGS_g, align 8, !tbaa !11
  %61 = load i64, ptr @H5E_BADTYPE_g, align 8, !tbaa !11
  %62 = call i32 (ptr, ptr, i32, i64, i64, ptr, ...) @H5E_printf_stack(ptr noundef @.str, ptr noundef @__func__.H5VL__native_dataset_create, i32 noundef 268, i64 noundef %60, i64 noundef %61, ptr noundef @.str.2)
  br label %63

63:                                               ; preds = %59
  br label %64

64:                                               ; preds = %63
  store i8 1, ptr %25, align 1, !tbaa !15
  %65 = load i8, ptr %25, align 1, !tbaa !15, !range !20, !noundef !21
  %66 = trunc i8 %65 to i1
  %67 = zext i1 %66 to i8
  store i8 %67, ptr %25, align 1, !tbaa !15
  br label %68

68:                                               ; preds = %64
  br label %69

69:                                               ; preds = %68
  br label %70

70:                                               ; preds = %69
  store ptr null, ptr %24, align 8, !tbaa !3
  br label %163

71:                                               ; No predecessors!
  br label %72

72:                                               ; preds = %71
  br label %73

73:                                               ; preds = %72
  br label %74

74:                                               ; preds = %73
  br label %75

75:                                               ; preds = %74, %52
  %76 = load i64, ptr %16, align 8, !tbaa !11
  %77 = call ptr @H5I_object_verify(i64 noundef %76, i32 noundef 4)
  store ptr %77, ptr %23, align 8, !tbaa !22
  %78 = icmp eq ptr null, %77
  br i1 %78, label %79, label %98

79:                                               ; preds = %75
  br label %80

80:                                               ; preds = %79
  br label %81

81:                                               ; preds = %80
  br label %82

82:                                               ; preds = %81
  %83 = load i64, ptr @H5E_ARGS_g, align 8, !tbaa !11
  %84 = load i64, ptr @H5E_BADTYPE_g, align 8, !tbaa !11
  %85 = call i32 (ptr, ptr, i32, i64, i64, ptr, ...) @H5E_printf_stack(ptr noundef @.str, ptr noundef @__func__.H5VL__native_dataset_create, i32 noundef 270, i64 noundef %83, i64 noundef %84, ptr noundef @.str.3)
  br label %86

86:                                               ; preds = %82
  br label %87

87:                                               ; preds = %86
  store i8 1, ptr %25, align 1, !tbaa !15
  %88 = load i8, ptr %25, align 1, !tbaa !15, !range !20, !noundef !21
  %89 = trunc i8 %88 to i1
  %90 = zext i1 %89 to i8
  store i8 %90, ptr %25, align 1, !tbaa !15
  br label %91

91:                                               ; preds = %87
  br label %92

92:                                               ; preds = %91
  br label %93

93:                                               ; preds = %92
  store ptr null, ptr %24, align 8, !tbaa !3
  br label %163

94:                                               ; No predecessors!
  br label %95

95:                                               ; preds = %94
  br label %96

96:                                               ; preds = %95
  br label %97

97:                                               ; preds = %96
  br label %98

98:                                               ; preds = %97, %75
  %99 = load ptr, ptr %13, align 8, !tbaa !9
  %100 = icmp eq ptr null, %99
  br i1 %100, label %101, label %132

101:                                              ; preds = %98
  %102 = getelementptr inbounds nuw %struct.H5G_loc_t, ptr %21, i32 0, i32 0
  %103 = load ptr, ptr %102, align 8, !tbaa !24
  %104 = getelementptr inbounds nuw %struct.H5O_loc_t, ptr %103, i32 0, i32 0
  %105 = load ptr, ptr %104, align 8, !tbaa !28
  %106 = load i64, ptr %15, align 8, !tbaa !11
  %107 = load ptr, ptr %23, align 8, !tbaa !22
  %108 = load i64, ptr %17, align 8, !tbaa !11
  %109 = load i64, ptr %18, align 8, !tbaa !11
  %110 = call ptr @H5D__create(ptr noundef %105, i64 noundef %106, ptr noundef %107, i64 noundef %108, i64 noundef %109)
  store ptr %110, ptr %22, align 8, !tbaa !13
  %111 = icmp eq ptr null, %110
  br i1 %111, label %112, label %131

112:                                              ; preds = %101
  br label %113

113:                                              ; preds = %112
  br label %114

114:                                              ; preds = %113
  br label %115

115:                                              ; preds = %114
  %116 = load i64, ptr @H5E_DATASET_g, align 8, !tbaa !11
  %117 = load i64, ptr @H5E_CANTINIT_g, align 8, !tbaa !11
  %118 = call i32 (ptr, ptr, i32, i64, i64, ptr, ...) @H5E_printf_stack(ptr noundef @.str, ptr noundef @__func__.H5VL__native_dataset_create, i32 noundef 276, i64 noundef %116, i64 noundef %117, ptr noundef @.str.4)
  br label %119

119:                                              ; preds = %115
  br label %120

120:                                              ; preds = %119
  store i8 1, ptr %25, align 1, !tbaa !15
  %121 = load i8, ptr %25, align 1, !tbaa !15, !range !20, !noundef !21
  %122 = trunc i8 %121 to i1
  %123 = zext i1 %122 to i8
  store i8 %123, ptr %25, align 1, !tbaa !15
  br label %124

124:                                              ; preds = %120
  br label %125

125:                                              ; preds = %124
  br label %126

126:                                              ; preds = %125
  store ptr null, ptr %24, align 8, !tbaa !3
  br label %163

127:                                              ; No predecessors!
  br label %128

128:                                              ; preds = %127
  br label %129

129:                                              ; preds = %128
  br label %130

130:                                              ; preds = %129
  br label %131

131:                                              ; preds = %130, %101
  br label %161

132:                                              ; preds = %98
  %133 = load ptr, ptr %13, align 8, !tbaa !9
  %134 = load i64, ptr %15, align 8, !tbaa !11
  %135 = load ptr, ptr %23, align 8, !tbaa !22
  %136 = load i64, ptr %14, align 8, !tbaa !11
  %137 = load i64, ptr %17, align 8, !tbaa !11
  %138 = load i64, ptr %18, align 8, !tbaa !11
  %139 = call ptr @H5D__create_named(ptr noundef %21, ptr noundef %133, i64 noundef %134, ptr noundef %135, i64 noundef %136, i64 noundef %137, i64 noundef %138)
  store ptr %139, ptr %22, align 8, !tbaa !13
  %140 = icmp eq ptr null, %139
  br i1 %140, label %141, label %160

141:                                              ; preds = %132
  br label %142

142:                                              ; preds = %141
  br label %143

143:                                              ; preds = %142
  br label %144

144:                                              ; preds = %143
  %145 = load i64, ptr @H5E_DATASET_g, align 8, !tbaa !11
  %146 = load i64, ptr @H5E_CANTINIT_g, align 8, !tbaa !11
  %147 = call i32 (ptr, ptr, i32, i64, i64, ptr, ...) @H5E_printf_stack(ptr noundef @.str, ptr noundef @__func__.H5VL__native_dataset_create, i32 noundef 282, i64 noundef %145, i64 noundef %146, ptr noundef @.str.4)
  br label %148

148:                                              ; preds = %144
  br label %149

149:                                              ; preds = %148
  store i8 1, ptr %25, align 1, !tbaa !15
  %150 = load i8, ptr %25, align 1, !tbaa !15, !range !20, !noundef !21
  %151 = trunc i8 %150 to i1
  %152 = zext i1 %151 to i8
  store i8 %152, ptr %25, align 1, !tbaa !15
  br label %153

153:                                              ; preds = %149
  br label %154

154:                                              ; preds = %153
  br label %155

155:                                              ; preds = %154
  store ptr null, ptr %24, align 8, !tbaa !3
  br label %163

156:                                              ; No predecessors!
  br label %157

157:                                              ; preds = %156
  br label %158

158:                                              ; preds = %157
  br label %159

159:                                              ; preds = %158
  br label %160

160:                                              ; preds = %159, %132
  br label %161

161:                                              ; preds = %160, %131
  %162 = load ptr, ptr %22, align 8, !tbaa !13
  store ptr %162, ptr %24, align 8, !tbaa !3
  br label %163

163:                                              ; preds = %161, %155, %126, %93, %70, %47
  %164 = load ptr, ptr %13, align 8, !tbaa !9
  %165 = icmp eq ptr null, %164
  br i1 %165, label %166, label %211

166:                                              ; preds = %163
  %167 = load ptr, ptr %22, align 8, !tbaa !13
  %168 = icmp ne ptr %167, null
  br i1 %168, label %169, label %210

169:                                              ; preds = %166
  call void @llvm.lifetime.start.p0(i64 8, ptr %26) #6
  %170 = load ptr, ptr %22, align 8, !tbaa !13
  %171 = call ptr @H5D_oloc(ptr noundef %170)
  store ptr %171, ptr %26, align 8, !tbaa !31
  %172 = icmp eq ptr null, %171
  br i1 %172, label %173, label %189

173:                                              ; preds = %169
  br label %174

174:                                              ; preds = %173
  br label %175

175:                                              ; preds = %174
  br label %176

176:                                              ; preds = %175
  %177 = load i64, ptr @H5E_DATASET_g, align 8, !tbaa !11
  %178 = load i64, ptr @H5E_CANTGET_g, align 8, !tbaa !11
  %179 = call i32 (ptr, ptr, i32, i64, i64, ptr, ...) @H5E_printf_stack(ptr noundef @.str, ptr noundef @__func__.H5VL__native_dataset_create, i32 noundef 295, i64 noundef %177, i64 noundef %178, ptr noundef @.str.5)
  br label %180

180:                                              ; preds = %176
  br label %181

181:                                              ; preds = %180
  store i8 1, ptr %25, align 1, !tbaa !15
  %182 = load i8, ptr %25, align 1, !tbaa !15, !range !20, !noundef !21
  %183 = trunc i8 %182 to i1
  %184 = zext i1 %183 to i8
  store i8 %184, ptr %25, align 1, !tbaa !15
  br label %185

185:                                              ; preds = %181
  br label %186

186:                                              ; preds = %185
  store ptr null, ptr %24, align 8, !tbaa !3
  br label %187

187:                                              ; preds = %186
  br label %188

188:                                              ; preds = %187
  br label %189

189:                                              ; preds = %188, %169
  %190 = load ptr, ptr %26, align 8, !tbaa !31
  %191 = call i32 @H5O_dec_rc_by_loc(ptr noundef %190)
  %192 = icmp slt i32 %191, 0
  br i1 %192, label %193, label %209

193:                                              ; preds = %189
  br label %194

194:                                              ; preds = %193
  br label %195

195:                                              ; preds = %194
  br label %196

196:                                              ; preds = %195
  %197 = load i64, ptr @H5E_DATASET_g, align 8, !tbaa !11
  %198 = load i64, ptr @H5E_CANTDEC_g, align 8, !tbaa !11
  %199 = call i32 (ptr, ptr, i32, i64, i64, ptr, ...) @H5E_printf_stack(ptr noundef @.str, ptr noundef @__func__.H5VL__native_dataset_create, i32 noundef 300, i64 noundef %197, i64 noundef %198, ptr noundef @.str.6)
  br label %200

200:                                              ; preds = %196
  br label %201

201:                                              ; preds = %200
  store i8 1, ptr %25, align 1, !tbaa !15
  %202 = load i8, ptr %25, align 1, !tbaa !15, !range !20, !noundef !21
  %203 = trunc i8 %202 to i1
  %204 = zext i1 %203 to i8
  store i8 %204, ptr %25, align 1, !tbaa !15
  br label %205

205:                                              ; preds = %201
  br label %206

206:                                              ; preds = %205
  store ptr null, ptr %24, align 8, !tbaa !3
  br label %207

207:                                              ; preds = %206
  br label %208

208:                                              ; preds = %207
  br label %209

209:                                              ; preds = %208, %189
  call void @llvm.lifetime.end.p0(i64 8, ptr %26) #6
  br label %210

210:                                              ; preds = %209, %166
  br label %211

211:                                              ; preds = %210, %163
  %212 = load ptr, ptr %24, align 8, !tbaa !3
  call void @llvm.lifetime.end.p0(i64 1, ptr %25) #6
  call void @llvm.lifetime.end.p0(i64 8, ptr %24) #6
  call void @llvm.lifetime.end.p0(i64 8, ptr %23) #6
  call void @llvm.lifetime.end.p0(i64 8, ptr %22) #6
  call void @llvm.lifetime.end.p0(i64 16, ptr %21) #6
  ret ptr %212
}