; Function Attrs: nounwind uwtable
define ptr @H5VL__native_dataset_create(ptr noundef %0, ptr noundef readonly captures(none) %1, ptr noundef %2, i64 noundef %3, i64 noundef %4, i64 noundef %5, i64 noundef %6, i64 noundef %7, i64 noundef %8, ptr noundef readnone captures(none) %9) local_unnamed_addr #0 {
  %11 = alloca %struct.H5G_loc_t, align 8
  call void @llvm.lifetime.start.p0(i64 16, ptr nonnull %11) #5
  %12 = load i32, ptr %1, align 8, !tbaa !3
  %13 = call i32 @H5G_loc_real(ptr noundef %0, i32 noundef %12, ptr noundef nonnull %11) #5
  %14 = icmp slt i32 %13, 0
  br i1 %14, label %15, label %19

15:                                               ; preds = %10
  %16 = load i64, ptr @H5E_ARGS_g, align 8, !tbaa !8
  %17 = load i64, ptr @H5E_BADTYPE_g, align 8, !tbaa !8
  %18 = call i32 (ptr, ptr, i32, i64, i64, ptr, ...) @H5E_printf_stack(ptr noundef nonnull @.str, ptr noundef nonnull @__func__.H5VL__native_dataset_create, i32 noundef 266, i64 noundef %16, i64 noundef %17, ptr noundef nonnull @.str.1) #5
  br label %.thread

19:                                               ; preds = %10
  %20 = call i32 @H5I_get_type(i64 noundef %4) #5
  %.not = icmp eq i32 %20, 3
  br i1 %.not, label %25, label %21

21:                                               ; preds = %19
  %22 = load i64, ptr @H5E_ARGS_g, align 8, !tbaa !8
  %23 = load i64, ptr @H5E_BADTYPE_g, align 8, !tbaa !8
  %24 = call i32 (ptr, ptr, i32, i64, i64, ptr, ...) @H5E_printf_stack(ptr noundef nonnull @.str, ptr noundef nonnull @__func__.H5VL__native_dataset_create, i32 noundef 268, i64 noundef %22, i64 noundef %23, ptr noundef nonnull @.str.2) #5
  br label %.thread

25:                                               ; preds = %19
  %26 = call ptr @H5I_object_verify(i64 noundef %5, i32 noundef 4) #5
  %27 = icmp eq ptr %26, null
  br i1 %27, label %28, label %32

28:                                               ; preds = %25
  %29 = load i64, ptr @H5E_ARGS_g, align 8, !tbaa !8
  %30 = load i64, ptr @H5E_BADTYPE_g, align 8, !tbaa !8
  %31 = call i32 (ptr, ptr, i32, i64, i64, ptr, ...) @H5E_printf_stack(ptr noundef nonnull @.str, ptr noundef nonnull @__func__.H5VL__native_dataset_create, i32 noundef 270, i64 noundef %29, i64 noundef %30, ptr noundef nonnull @.str.3) #5
  br label %.thread

32:                                               ; preds = %25
  %33 = icmp eq ptr %2, null
  br i1 %33, label %34, label %43

34:                                               ; preds = %32
  %35 = load ptr, ptr %11, align 8, !tbaa !10
  %36 = load ptr, ptr %35, align 8, !tbaa !15
  %37 = call ptr @H5D__create(ptr noundef %36, i64 noundef %4, ptr noundef nonnull %26, i64 noundef %6, i64 noundef %7) #5
  %38 = icmp eq ptr %37, null
  br i1 %38, label %39, label %50

39:                                               ; preds = %34
  %40 = load i64, ptr @H5E_DATASET_g, align 8, !tbaa !8
  %41 = load i64, ptr @H5E_CANTINIT_g, align 8, !tbaa !8
  %42 = call i32 (ptr, ptr, i32, i64, i64, ptr, ...) @H5E_printf_stack(ptr noundef nonnull @.str, ptr noundef nonnull @__func__.H5VL__native_dataset_create, i32 noundef 276, i64 noundef %40, i64 noundef %41, ptr noundef nonnull @.str.4) #5
  br label %.thread

43:                                               ; preds = %32
  %44 = call ptr @H5D__create_named(ptr noundef nonnull %11, ptr noundef nonnull %2, i64 noundef %4, ptr noundef nonnull %26, i64 noundef %3, i64 noundef %6, i64 noundef %7) #5
  %45 = icmp eq ptr %44, null
  br i1 %45, label %46, label %.thread

46:                                               ; preds = %43
  %47 = load i64, ptr @H5E_DATASET_g, align 8, !tbaa !8
  %48 = load i64, ptr @H5E_CANTINIT_g, align 8, !tbaa !8
  %49 = call i32 (ptr, ptr, i32, i64, i64, ptr, ...) @H5E_printf_stack(ptr noundef nonnull @.str, ptr noundef nonnull @__func__.H5VL__native_dataset_create, i32 noundef 282, i64 noundef %47, i64 noundef %48, ptr noundef nonnull @.str.4) #5
  br label %.thread

50:                                               ; preds = %34
  %51 = call ptr @H5D_oloc(ptr noundef nonnull %37) #5
  %52 = icmp eq ptr %51, null
  br i1 %52, label %53, label %57

53:                                               ; preds = %50
  %54 = load i64, ptr @H5E_DATASET_g, align 8, !tbaa !8
  %55 = load i64, ptr @H5E_CANTGET_g, align 8, !tbaa !8
  %56 = call i32 (ptr, ptr, i32, i64, i64, ptr, ...) @H5E_printf_stack(ptr noundef nonnull @.str, ptr noundef nonnull @__func__.H5VL__native_dataset_create, i32 noundef 295, i64 noundef %54, i64 noundef %55, ptr noundef nonnull @.str.5) #5
  br label %57

57:                                               ; preds = %53, %50
  %.2 = phi ptr [ null, %53 ], [ %37, %50 ]
  %58 = call i32 @H5O_dec_rc_by_loc(ptr noundef %51) #5
  %59 = icmp slt i32 %58, 0
  br i1 %59, label %60, label %.thread

60:                                               ; preds = %57
  %61 = load i64, ptr @H5E_DATASET_g, align 8, !tbaa !8
  %62 = load i64, ptr @H5E_CANTDEC_g, align 8, !tbaa !8
  %63 = call i32 (ptr, ptr, i32, i64, i64, ptr, ...) @H5E_printf_stack(ptr noundef nonnull @.str, ptr noundef nonnull @__func__.H5VL__native_dataset_create, i32 noundef 300, i64 noundef %61, i64 noundef %62, ptr noundef nonnull @.str.6) #5
  br label %.thread

.thread:                                          ; preds = %39, %28, %21, %15, %46, %43, %57, %60
  %.129 = phi ptr [ null, %60 ], [ %.2, %57 ], [ %44, %43 ], [ null, %46 ], [ null, %39 ], [ null, %28 ], [ null, %21 ], [ null, %15 ]
  call void @llvm.lifetime.end.p0(i64 16, ptr nonnull %11) #5
  ret ptr %.129
}